target datalayout = "e-m:e-p270:32:32-p271:32:32-p272:64:64-i64:64-i128:128-f80:128-n8:16:32:64-S128"
target triple = "x86_64-unknown-linux-gnu"

%"class.hermes::Type" = type { i16, i16 }

@.str.46 = private unnamed_addr constant [24 x i8] c"Invalid binary operator\00", align 1

; Function Attrs: mustprogress nounwind uwtable
define linkonce_odr hidden noundef zeroext i1 @_ZNK6hermes4Type10isSubsetOfES0_(ptr noundef nonnull align 2 dereferenceable(4) %this, i32 %t.coerce) #0 comdat align 2 {
entry:
  %t = alloca %"class.hermes::Type", align 2
  %this.addr = alloca ptr, align 8
  store i32 %t.coerce, ptr %t, align 2
  store ptr %this, ptr %this.addr, align 8
  %this1 = load ptr, ptr %this.addr, align 8
  %bitmask_ = getelementptr inbounds %"class.hermes::Type", ptr %this1, i32 0, i32 0
  %0 = load i16, ptr %bitmask_, align 2
  %conv = zext i16 %0 to i32
  %bitmask_2 = getelementptr inbounds %"class.hermes::Type", ptr %t, i32 0, i32 0
  %1 = load i16, ptr %bitmask_2, align 2
  %conv3 = zext i16 %1 to i32
  %not = xor i32 %conv3, -1
  %and = and i32 %conv, %not
  %tobool = icmp ne i32 %and, 0
  %lnot = xor i1 %tobool, true
  ret i1 %lnot
}

; Function Attrs: mustprogress nounwind uwtable
define linkonce_odr hidden void @_ZN6hermes4TypeC2Ett(ptr noundef nonnull align 2 dereferenceable(4) %this, i16 noundef zeroext %mask, i16 noundef zeroext %numMask) unnamed_addr #0 comdat align 2 {
entry:
  %this.addr = alloca ptr, align 8
  %mask.addr = alloca i16, align 2
  %numMask.addr = alloca i16, align 2
  store ptr %this, ptr %this.addr, align 8
  store i16 %mask, ptr %mask.addr, align 2
  store i16 %numMask, ptr %numMask.addr, align 2
  %this1 = load ptr, ptr %this.addr, align 8
  %bitmask_ = getelementptr inbounds %"class.hermes::Type", ptr %this1, i32 0, i32 0
  %0 = load i16, ptr %mask.addr, align 2
  store i16 %0, ptr %bitmask_, align 2
  %numBitmask_ = getelementptr inbounds %"class.hermes::Type", ptr %this1, i32 0, i32 1
  %1 = load i16, ptr %numMask.addr, align 2
  store i16 %1, ptr %numBitmask_, align 2
  ret void
}

; Function Attrs: mustprogress nounwind uwtable
define linkonce_odr hidden noundef zeroext i1 @_ZNK6hermes4Type9canBeTypeES0_(ptr noundef nonnull align 2 dereferenceable(4) %this, i32 %t.coerce) #0 comdat align 2 {
entry:
  %t = alloca %"class.hermes::Type", align 2
  %this.addr = alloca ptr, align 8
  %agg.tmp = alloca %"class.hermes::Type", align 2
  store i32 %t.coerce, ptr %t, align 2
  store ptr %this, ptr %this.addr, align 8
  %this1 = load ptr, ptr %this.addr, align 8
  call void @llvm.memcpy.p0.p0.i64(ptr align 2 %agg.tmp, ptr align 2 %this1, i64 4, i1 false)
  %0 = load i32, ptr %agg.tmp, align 2
  %call = call noundef zeroext i1 @_ZNK6hermes4Type10isSubsetOfES0_(ptr noundef nonnull align 2 dereferenceable(4) %t, i32 %0)
  ret i1 %call
}

; Function Attrs: mustprogress nounwind uwtable
define linkonce_odr hidden i32 @_ZN6hermes4Type12createBigIntEv() #0 comdat align 2 {
entry:
  %retval = alloca %"class.hermes::Type", align 2
  call void @_ZN6hermes4TypeC2Ett(ptr noundef nonnull align 2 dereferenceable(4) %retval, i16 noundef zeroext 64, i16 noundef zeroext 7)
  %0 = load i32, ptr %retval, align 2
  ret i32 %0
}

; Function Attrs: mustprogress nounwind uwtable
define linkonce_odr hidden noundef zeroext i1 @_ZNK6hermes4Type12isBigIntTypeEv(ptr noundef nonnull align 2 dereferenceable(4) %this) #0 comdat align 2 {
entry:
  %this.addr = alloca ptr, align 8
  store ptr %this, ptr %this.addr, align 8
  %this1 = load ptr, ptr %this.addr, align 8
  %bitmask_ = getelementptr inbounds %"class.hermes::Type", ptr %this1, i32 0, i32 0
  %0 = load i16, ptr %bitmask_, align 2
  %conv = zext i16 %0 to i32
  %cmp = icmp eq i32 %conv, 64
  ret i1 %cmp
}

; Function Attrs: mustprogress nounwind uwtable
define linkonce_odr hidden noundef zeroext i1 @_ZNK6hermes4Type12isStringTypeEv(ptr noundef nonnull align 2 dereferenceable(4) %this) #0 comdat align 2 {
entry:
  %this.addr = alloca ptr, align 8
  store ptr %this, ptr %this.addr, align 8
  %this1 = load ptr, ptr %this.addr, align 8
  %bitmask_ = getelementptr inbounds %"class.hermes::Type", ptr %this1, i32 0, i32 0
  %0 = load i16, ptr %bitmask_, align 2
  %conv = zext i16 %0 to i32
  %cmp = icmp eq i32 %conv, 16
  ret i1 %cmp
}

; Function Attrs: mustprogress nounwind uwtable
define linkonce_odr hidden noundef zeroext i1 @_ZNK6hermes4Type11canBeBigIntEv(ptr noundef nonnull align 2 dereferenceable(4) %this) #0 comdat align 2 {
entry:
  %this.addr = alloca ptr, align 8
  %agg.tmp = alloca %"class.hermes::Type", align 2
  store ptr %this, ptr %this.addr, align 8
  %this1 = load ptr, ptr %this.addr, align 8
  %call = call i32 @_ZN6hermes4Type12createBigIntEv()
  store i32 %call, ptr %agg.tmp, align 2
  %0 = load i32, ptr %agg.tmp, align 2
  %call2 = call noundef zeroext i1 @_ZNK6hermes4Type9canBeTypeES0_(ptr noundef nonnull align 2 dereferenceable(4) %this1, i32 %0)
  ret i1 %call2
}

; Function Attrs: mustprogress nounwind uwtable
define linkonce_odr hidden noundef zeroext i1 @_ZNK6hermes4Type11isPrimitiveEv(ptr noundef nonnull align 2 dereferenceable(4) %this) #0 comdat align 2 {
entry:
  %this.addr = alloca ptr, align 8
  store ptr %this, ptr %this.addr, align 8
  %this1 = load ptr, ptr %this.addr, align 8
  %bitmask_ = getelementptr inbounds %"class.hermes::Type", ptr %this1, i32 0, i32 0
  %0 = load i16, ptr %bitmask_, align 2
  %tobool = icmp ne i16 %0, 0
  br i1 %tobool, label %land.rhs, label %land.end

land.rhs:                                         ; preds = %entry
  %bitmask_2 = getelementptr inbounds %"class.hermes::Type", ptr %this1, i32 0, i32 0
  %1 = load i16, ptr %bitmask_2, align 2
  %conv = zext i16 %1 to i32
  %and = and i32 %conv, -127
  %tobool3 = icmp ne i32 %and, 0
  %lnot = xor i1 %tobool3, true
  br label %land.end

land.end:                                         ; preds = %land.rhs, %entry
  %2 = phi i1 [ false, %entry ], [ %lnot, %land.rhs ]
  ret i1 %2
}

; Function Attrs: mustprogress nounwind uwtable
define hidden noundef i32 @_ZN6hermes18BinaryOperatorInst19getBinarySideEffectENS_4TypeES1_NS0_6OpKindE(i32 %leftTy.coerce, i32 %rightTy.coerce, i32 noundef %op) #0 align 2 {
entry:
  %retval = alloca i32, align 4
  %leftTy = alloca %"class.hermes::Type", align 2
  %rightTy = alloca %"class.hermes::Type", align 2
  %op.addr = alloca i32, align 4
  store i32 %leftTy.coerce, ptr %leftTy, align 2
  store i32 %rightTy.coerce, ptr %rightTy, align 2
  store i32 %op, ptr %op.addr, align 4
  %0 = load i32, ptr %op.addr, align 4
  switch i32 %0, label %sw.default [
    i32 24, label %sw.bb
    i32 25, label %sw.bb
    i32 4, label %sw.bb1
    i32 3, label %sw.bb1
    i32 1, label %sw.bb2
    i32 2, label %sw.bb2
    i32 5, label %sw.bb2
    i32 6, label %sw.bb2
    i32 7, label %sw.bb2
    i32 8, label %sw.bb2
    i32 11, label %sw.bb4
    i32 15, label %sw.bb4
    i32 16, label %sw.bb4
    i32 12, label %sw.bb14
    i32 9, label %sw.bb25
    i32 10, label %sw.bb25
    i32 13, label %sw.bb25
    i32 14, label %sw.bb25
    i32 17, label %sw.bb25
    i32 18, label %sw.bb25
    i32 19, label %sw.bb25
    i32 20, label %sw.bb25
  ]

sw.bb:                                            ; preds = %entry, %entry
  store i32 3, ptr %retval, align 4
  br label %return

sw.bb1:                                           ; preds = %entry, %entry
  store i32 0, ptr %retval, align 4
  br label %return

sw.bb2:                                           ; preds = %entry, %entry, %entry, %entry, %entry, %entry
  %call = call noundef zeroext i1 @_ZNK6hermes4Type11isPrimitiveEv(ptr noundef nonnull align 2 dereferenceable(4) %leftTy)
  br i1 %call, label %land.lhs.true, label %if.end

land.lhs.true:                                    ; preds = %sw.bb2
  %call3 = call noundef zeroext i1 @_ZNK6hermes4Type11isPrimitiveEv(ptr noundef nonnull align 2 dereferenceable(4) %rightTy)
  br i1 %call3, label %if.then, label %if.end

if.then:                                          ; preds = %land.lhs.true
  store i32 0, ptr %retval, align 4
  br label %return

if.end:                                           ; preds = %land.lhs.true, %sw.bb2
  br label %sw.epilog

sw.bb4:                                           ; preds = %entry, %entry, %entry
  %call5 = call noundef zeroext i1 @_ZNK6hermes4Type11isPrimitiveEv(ptr noundef nonnull align 2 dereferenceable(4) %leftTy)
  br i1 %call5, label %lor.lhs.false, label %if.then7

lor.lhs.false:                                    ; preds = %sw.bb4
  %call6 = call noundef zeroext i1 @_ZNK6hermes4Type11isPrimitiveEv(ptr noundef nonnull align 2 dereferenceable(4) %rightTy)
  br i1 %call6, label %if.end8, label %if.then7

if.then7:                                         ; preds = %lor.lhs.false, %sw.bb4
  br label %sw.epilog

if.end8:                                          ; preds = %lor.lhs.false
  %call9 = call noundef zeroext i1 @_ZNK6hermes4Type11canBeBigIntEv(ptr noundef nonnull align 2 dereferenceable(4) %leftTy)
  br i1 %call9, label %if.then12, label %lor.lhs.false10

lor.lhs.false10:                                  ; preds = %if.end8
  %call11 = call noundef zeroext i1 @_ZNK6hermes4Type11canBeBigIntEv(ptr noundef nonnull align 2 dereferenceable(4) %rightTy)
  br i1 %call11, label %if.then12, label %if.end13

if.then12:                                        ; preds = %lor.lhs.false10, %if.end8
  store i32 3, ptr %retval, align 4
  br label %return

if.end13:                                         ; preds = %lor.lhs.false10
  store i32 0, ptr %retval, align 4
  br label %return

sw.bb14:                                          ; preds = %entry
  %call15 = call noundef zeroext i1 @_ZNK6hermes4Type11isPrimitiveEv(ptr noundef nonnull align 2 dereferenceable(4) %leftTy)
  br i1 %call15, label %lor.lhs.false16, label %if.then18

lor.lhs.false16:                                  ; preds = %sw.bb14
  %call17 = call noundef zeroext i1 @_ZNK6hermes4Type11isPrimitiveEv(ptr noundef nonnull align 2 dereferenceable(4) %rightTy)
  br i1 %call17, label %if.end19, label %if.then18

if.then18:                                        ; preds = %lor.lhs.false16, %sw.bb14
  br label %sw.epilog

if.end19:                                         ; preds = %lor.lhs.false16
  %call20 = call noundef zeroext i1 @_ZNK6hermes4Type12isStringTypeEv(ptr noundef nonnull align 2 dereferenceable(4) %leftTy)
  br i1 %call20, label %if.then23, label %lor.lhs.false21

lor.lhs.false21:                                  ; preds = %if.end19
  %call22 = call noundef zeroext i1 @_ZNK6hermes4Type12isStringTypeEv(ptr noundef nonnull align 2 dereferenceable(4) %rightTy)
  br i1 %call22, label %if.then23, label %if.end24

if.then23:                                        ; preds = %lor.lhs.false21, %if.end19
  store i32 0, ptr %retval, align 4
  br label %return

if.end24:                                         ; preds = %lor.lhs.false21
  br label %sw.bb25

sw.bb25:                                          ; preds = %if.end24, %entry, %entry, %entry, %entry, %entry, %entry, %entry, %entry
  %call26 = call noundef zeroext i1 @_ZNK6hermes4Type11isPrimitiveEv(ptr noundef nonnull align 2 dereferenceable(4) %leftTy)
  br i1 %call26, label %lor.lhs.false27, label %if.then29

lor.lhs.false27:                                  ; preds = %sw.bb25
  %call28 = call noundef zeroext i1 @_ZNK6hermes4Type11isPrimitiveEv(ptr noundef nonnull align 2 dereferenceable(4) %rightTy)
  br i1 %call28, label %if.end30, label %if.then29

if.then29:                                        ; preds = %lor.lhs.false27, %sw.bb25
  br label %sw.epilog

if.end30:                                         ; preds = %lor.lhs.false27
  %call31 = call noundef zeroext i1 @_ZNK6hermes4Type12isBigIntTypeEv(ptr noundef nonnull align 2 dereferenceable(4) %leftTy)
  br i1 %call31, label %land.lhs.true32, label %if.end35

land.lhs.true32:                                  ; preds = %if.end30
  %call33 = call noundef zeroext i1 @_ZNK6hermes4Type12isBigIntTypeEv(ptr noundef nonnull align 2 dereferenceable(4) %rightTy)
  br i1 %call33, label %if.then34, label %if.end35

if.then34:                                        ; preds = %land.lhs.true32
  store i32 0, ptr %retval, align 4
  br label %return

if.end35:                                         ; preds = %land.lhs.true32, %if.end30
  %call36 = call noundef zeroext i1 @_ZNK6hermes4Type11canBeBigIntEv(ptr noundef nonnull align 2 dereferenceable(4) %leftTy)
  br i1 %call36, label %if.then39, label %lor.lhs.false37

lor.lhs.false37:                                  ; preds = %if.end35
  %call38 = call noundef zeroext i1 @_ZNK6hermes4Type11canBeBigIntEv(ptr noundef nonnull align 2 dereferenceable(4) %rightTy)
  br i1 %call38, label %if.then39, label %if.end40

if.then39:                                        ; preds = %lor.lhs.false37, %if.end35
  store i32 3, ptr %retval, align 4
  br label %return

if.end40:                                         ; preds = %lor.lhs.false37
  store i32 0, ptr %retval, align 4
  br label %return

sw.default:                                       ; preds = %entry
  call void @_ZN6hermes12hermes_fatalEPKc(ptr noundef @.str.46) #9
  unreachable

sw.epilog:                                        ; preds = %if.then29, %if.then18, %if.then7, %if.end
  store i32 3, ptr %retval, align 4
  br label %return

return:                                           ; preds = %sw.epilog, %if.end40, %if.then39, %if.then34, %if.then23, %if.end13, %if.then12, %if.then, %sw.bb1, %sw.bb
  %1 = load i32, ptr %retval, align 4
  ret i32 %1
}